; ModuleID = 'bench/opencv/original/perf_gpumat.ll'
source_filename = "bench/opencv/original/perf_gpumat.ll"
target datalayout = "e-m:e-p270:32:32-p271:32:32-p272:64:64-i64:64-i128:128-f80:128-n8:16:32:64-S128"
target triple = "x86_64-pc-linux-gnu"

%"class.std::ios_base::Init" = type { i8 }
%"class.cv::Size_" = type { i32, i32 }

@_ZStL8__ioinit = internal global %"class.std::ios_base::Init" zeroinitializer, align 1
@__dso_handle = external hidden global i8
@_ZN4perfL6szQVGAE = internal global %"class.cv::Size_" zeroinitializer, align 4
@_ZN4perfL5szVGAE = internal global %"class.cv::Size_" zeroinitializer, align 4
@_ZN4perfL6szSVGAE = internal global %"class.cv::Size_" zeroinitializer, align 4
@_ZN4perfL5szXGAE = internal global %"class.cv::Size_" zeroinitializer, align 4
@_ZN4perfL6szSXGAE = internal global %"class.cv::Size_" zeroinitializer, align 4
@_ZN4perfL6szWQHDE = internal global %"class.cv::Size_" zeroinitializer, align 4
@_ZN4perfL5sznHDE = internal global %"class.cv::Size_" zeroinitializer, align 4
@_ZN4perfL5szqHDE = internal global %"class.cv::Size_" zeroinitializer, align 4
@_ZN4perfL6sz720pE = internal global %"class.cv::Size_" zeroinitializer, align 4
@_ZN4perfL7sz1080pE = internal global %"class.cv::Size_" zeroinitializer, align 4
@_ZN4perfL7sz2160pE = internal global %"class.cv::Size_" zeroinitializer, align 4
@_ZN4perfL7sz4320pE = internal global %"class.cv::Size_" zeroinitializer, align 4
@_ZN4perfL5sz3MPE = internal global %"class.cv::Size_" zeroinitializer, align 4
@_ZN4perfL5sz5MPE = internal global %"class.cv::Size_" zeroinitializer, align 4
@_ZN4perfL4sz2KE = internal global %"class.cv::Size_" zeroinitializer, align 4
@_ZN4perfL5szODDE = internal global %"class.cv::Size_" zeroinitializer, align 4
@_ZN4perfL9szSmall24E = internal global %"class.cv::Size_" zeroinitializer, align 4
@_ZN4perfL9szSmall32E = internal global %"class.cv::Size_" zeroinitializer, align 4
@_ZN4perfL9szSmall64E = internal global %"class.cv::Size_" zeroinitializer, align 4
@_ZN4perfL10szSmall128E = internal global %"class.cv::Size_" zeroinitializer, align 4
@llvm.global_ctors = appending global [1 x { i32, ptr, ptr }] [{ i32, ptr, ptr } { i32 65535, ptr @_GLOBAL__sub_I_perf_gpumat.cpp, ptr null }]

declare void @_ZNSt8ios_base4InitC1Ev(ptr noundef nonnull align 1 dereferenceable(1)) unnamed_addr #0

; Function Attrs: nounwind
declare void @_ZNSt8ios_base4InitD1Ev(ptr noundef nonnull align 1 dereferenceable(1)) unnamed_addr #1

; Function Attrs: nofree nounwind
declare i32 @__cxa_atexit(ptr, ptr, ptr) local_unnamed_addr #2

; Function Attrs: mustprogress nocallback nofree nosync nounwind willreturn memory(argmem: readwrite)
declare ptr @llvm.invariant.start.p0(i64 immarg, ptr captures(none)) #3

; Function Attrs: uwtable
define internal void @_GLOBAL__sub_I_perf_gpumat.cpp() #4 section ".text.startup" {
  tail call void @_ZNSt8ios_base4InitC1Ev(ptr noundef nonnull align 1 dereferenceable(1) @_ZStL8__ioinit)
  %1 = tail call i32 @__cxa_atexit(ptr nonnull @_ZNSt8ios_base4InitD1Ev, ptr nonnull @_ZStL8__ioinit, ptr nonnull @__dso_handle) #5
  store i32 320, ptr @_ZN4perfL6szQVGAE, align 4, !tbaa !4
  store i32 240, ptr getelementptr inbounds nuw (i8, ptr @_ZN4perfL6szQVGAE, i64 4), align 4, !tbaa !9
  %2 = tail call ptr @llvm.invariant.start.p0(i64 8, ptr nonnull @_ZN4perfL6szQVGAE)
  store i32 640, ptr @_ZN4perfL5szVGAE, align 4, !tbaa !4
  store i32 480, ptr getelementptr inbounds nuw (i8, ptr @_ZN4perfL5szVGAE, i64 4), align 4, !tbaa !9
  %3 = tail call ptr @llvm.invariant.start.p0(i64 8, ptr nonnull @_ZN4perfL5szVGAE)
  store i32 800, ptr @_ZN4perfL6szSVGAE, align 4, !tbaa !4
  store i32 600, ptr getelementptr inbounds nuw (i8, ptr @_ZN4perfL6szSVGAE, i64 4), align 4, !tbaa !9
  %4 = tail call ptr @llvm.invariant.start.p0(i64 8, ptr nonnull @_ZN4perfL6szSVGAE)
  store i32 1024, ptr @_ZN4perfL5szXGAE, align 4, !tbaa !4
  store i32 768, ptr getelementptr inbounds nuw (i8, ptr @_ZN4perfL5szXGAE, i64 4), align 4, !tbaa !9
  %5 = tail call ptr @llvm.invariant.start.p0(i64 8, ptr nonnull @_ZN4perfL5szXGAE)
  store i32 1280, ptr @_ZN4perfL6szSXGAE, align 4, !tbaa !4
  store i32 1024, ptr getelementptr inbounds nuw (i8, ptr @_ZN4perfL6szSXGAE, i64 4), align 4, !tbaa !9
  %6 = tail call ptr @llvm.invariant.start.p0(i64 8, ptr nonnull @_ZN4perfL6szSXGAE)
  store i32 2560, ptr @_ZN4perfL6szWQHDE, align 4, !tbaa !4
  store i32 1440, ptr getelementptr inbounds nuw (i8, ptr @_ZN4perfL6szWQHDE, i64 4), align 4, !tbaa !9
  %7 = tail call ptr @llvm.invariant.start.p0(i64 8, ptr nonnull @_ZN4perfL6szWQHDE)
  store i32 640, ptr @_ZN4perfL5sznHDE, align 4, !tbaa !4
  store i32 360, ptr getelementptr inbounds nuw (i8, ptr @_ZN4perfL5sznHDE, i64 4), align 4, !tbaa !9
  %8 = tail call ptr @llvm.invariant.start.p0(i64 8, ptr nonnull @_ZN4perfL5sznHDE)
  store i32 960, ptr @_ZN4perfL5szqHDE, align 4, !tbaa !4
  store i32 540, ptr getelementptr inbounds nuw (i8, ptr @_ZN4perfL5szqHDE, i64 4), align 4, !tbaa !9
  %9 = tail call ptr @llvm.invariant.start.p0(i64 8, ptr nonnull @_ZN4perfL5szqHDE)
  store i32 1280, ptr @_ZN4perfL6sz720pE, align 4, !tbaa !4
  store i32 720, ptr getelementptr inbounds nuw (i8, ptr @_ZN4perfL6sz720pE, i64 4), align 4, !tbaa !9
  %10 = tail call ptr @llvm.invariant.start.p0(i64 8, ptr nonnull @_ZN4perfL6sz720pE)
  store i32 1920, ptr @_ZN4perfL7sz1080pE, align 4, !tbaa !4
  store i32 1080, ptr getelementptr inbounds nuw (i8, ptr @_ZN4perfL7sz1080pE, i64 4), align 4, !tbaa !9
  %11 = tail call ptr @llvm.invariant.start.p0(i64 8, ptr nonnull @_ZN4perfL7sz1080pE)
  store i32 3840, ptr @_ZN4perfL7sz2160pE, align 4, !tbaa !4
  store i32 2160, ptr getelementptr inbounds nuw (i8, ptr @_ZN4perfL7sz2160pE, i64 4), align 4, !tbaa !9
  %12 = tail call ptr @llvm.invariant.start.p0(i64 8, ptr nonnull @_ZN4perfL7sz2160pE)
  store i32 7680, ptr @_ZN4perfL7sz4320pE, align 4, !tbaa !4
  store i32 4320, ptr getelementptr inbounds nuw (i8, ptr @_ZN4perfL7sz4320pE, i64 4), align 4, !tbaa !9
  %13 = tail call ptr @llvm.invariant.start.p0(i64 8, ptr nonnull @_ZN4perfL7sz4320pE)
  store i32 2048, ptr @_ZN4perfL5sz3MPE, align 4, !tbaa !4
  store i32 1536, ptr getelementptr inbounds nuw (i8, ptr @_ZN4perfL5sz3MPE, i64 4), align 4, !tbaa !9
  %14 = tail call ptr @llvm.invariant.start.p0(i64 8, ptr nonnull @_ZN4perfL5sz3MPE)
  store i32 2592, ptr @_ZN4perfL5sz5MPE, align 4, !tbaa !4
  store i32 1944, ptr getelementptr inbounds nuw (i8, ptr @_ZN4perfL5sz5MPE, i64 4), align 4, !tbaa !9
  %15 = tail call ptr @llvm.invariant.start.p0(i64 8, ptr nonnull @_ZN4perfL5sz5MPE)
  store i32 2048, ptr @_ZN4perfL4sz2KE, align 4, !tbaa !4
  store i32 2048, ptr getelementptr inbounds nuw (i8, ptr @_ZN4perfL4sz2KE, i64 4), align 4, !tbaa !9
  %16 = tail call ptr @llvm.invariant.start.p0(i64 8, ptr nonnull @_ZN4perfL4sz2KE)
  store i32 127, ptr @_ZN4perfL5szODDE, align 4, !tbaa !4
  store i32 61, ptr getelementptr inbounds nuw (i8, ptr @_ZN4perfL5szODDE, i64 4), align 4, !tbaa !9
  %17 = tail call ptr @llvm.invariant.start.p0(i64 8, ptr nonnull @_ZN4perfL5szODDE)
  store i32 24, ptr @_ZN4perfL9szSmall24E, align 4, !tbaa !4
  store i32 24, ptr getelementptr inbounds nuw (i8, ptr @_ZN4perfL9szSmall24E, i64 4), align 4, !tbaa !9
  %18 = tail call ptr @llvm.invariant.start.p0(i64 8, ptr nonnull @_ZN4perfL9szSmall24E)
  store i32 32, ptr @_ZN4perfL9szSmall32E, align 4, !tbaa !4
  store i32 32, ptr getelementptr inbounds nuw (i8, ptr @_ZN4perfL9szSmall32E, i64 4), align 4, !tbaa !9
  %19 = tail call ptr @llvm.invariant.start.p0(i64 8, ptr nonnull @_ZN4perfL9szSmall32E)
  store i32 64, ptr @_ZN4perfL9szSmall64E, align 4, !tbaa !4
  store i32 64, ptr getelementptr inbounds nuw (i8, ptr @_ZN4perfL9szSmall64E, i64 4), align 4, !tbaa !9
  %20 = tail call ptr @llvm.invariant.start.p0(i64 8, ptr nonnull @_ZN4perfL9szSmall64E)
  store i32 128, ptr @_ZN4perfL10szSmall128E, align 4, !tbaa !4
  store i32 128, ptr getelementptr inbounds nuw (i8, ptr @_ZN4perfL10szSmall128E, i64 4), align 4, !tbaa !9
  %21 = tail call ptr @llvm.invariant.start.p0(i64 8, ptr nonnull @_ZN4perfL10szSmall128E)
  ret void
}


!llvm.module.flags = !{!0, !1, !2, !3}

!0 = !{i32 1, !"wchar_size", i32 4}
!1 = !{i32 8, !"PIC Level", i32 2}
!2 = !{i32 7, !"PIE Level", i32 2}
!3 = !{i32 7, !"uwtable", i32 2}
!4 = !{!5, !6, i64 0}
!5 = !{!"_ZTSN2cv5Size_IiEE", !6, i64 0, !6, i64 4}
!6 = !{!"int", !7, i64 0}
!7 = !{!"omnipotent char", !8, i64 0}
!8 = !{!"Simple C++ TBAA"}
!9 = !{!5, !6, i64 4}
